target datalayout = "e-m:e-p270:32:32-p271:32:32-p272:64:64-i64:64-i128:128-f80:128-n8:16:32:64-S128"
target triple = "x86_64-pc-linux-gnu"

%struct.TidStoreIterResult = type { i32, ptr }

; Function Attrs: nounwind uwtable
define internal i32 @vacuum_reap_lp_read_stream_next(ptr noundef %0, ptr noundef %1, ptr noundef %2) #0 {
  %4 = alloca i32, align 4
  %5 = alloca ptr, align 8
  %6 = alloca ptr, align 8
  %7 = alloca ptr, align 8
  %8 = alloca ptr, align 8
  %9 = alloca ptr, align 8
  %10 = alloca i32, align 4
  store ptr %0, ptr %5, align 8
  store ptr %1, ptr %6, align 8
  store ptr %2, ptr %7, align 8
  call void @llvm.lifetime.start.p0(i64 8, ptr %8) #10
  %11 = load ptr, ptr %6, align 8
  store ptr %11, ptr %8, align 8
  call void @llvm.lifetime.start.p0(i64 8, ptr %9) #10
  %12 = load ptr, ptr %8, align 8
  %13 = call ptr @TidStoreIterateNext(ptr noundef %12)
  store ptr %13, ptr %9, align 8
  %14 = load ptr, ptr %9, align 8
  %15 = icmp eq ptr %14, null
  br i1 %15, label %16, label %17

16:                                               ; preds = %3
  store i32 -1, ptr %4, align 4
  store i32 1, ptr %10, align 4
  br label %23

17:                                               ; preds = %3
  %18 = load ptr, ptr %7, align 8
  %19 = load ptr, ptr %9, align 8
  call void @llvm.memcpy.p0.p0.i64(ptr align 1 %18, ptr align 8 %19, i64 16, i1 false)
  %20 = load ptr, ptr %9, align 8
  %21 = getelementptr inbounds nuw %struct.TidStoreIterResult, ptr %20, i32 0, i32 0
  %22 = load i32, ptr %21, align 8
  store i32 %22, ptr %4, align 4
  store i32 1, ptr %10, align 4
  br label %23

23:                                               ; preds = %17, %16
  call void @llvm.lifetime.end.p0(i64 8, ptr %9) #10
  call void @llvm.lifetime.end.p0(i64 8, ptr %8) #10
  %24 = load i32, ptr %4, align 4
  ret i32 %24
}