; Function Attrs: nounwind uwtable
define internal i32 @vacuum_reap_lp_read_stream_next(ptr readnone captures(none) %0, ptr noundef %1, ptr noundef writeonly captures(none) %2) #0 {
  %4 = tail call ptr @TidStoreIterateNext(ptr noundef %1) #10
  %5 = icmp eq ptr %4, null
  br i1 %5, label %8, label %6

6:                                                ; preds = %3
  tail call void @llvm.memcpy.p0.p0.i64(ptr noundef nonnull align 1 dereferenceable(16) %2, ptr noundef nonnull align 8 dereferenceable(16) %4, i64 16, i1 false)
  %7 = load i32, ptr %4, align 8
  br label %8

8:                                                ; preds = %3, %6
  %.0 = phi i32 [ %7, %6 ], [ -1, %3 ]
  ret i32 %.0
}